$ objdump -d -M intel vuln

vuln:     file format elf32-i386


Disassembly of section .init:

080482f4 <_init>:
 80482f4:	55                   	push   ebp
 80482f5:	89 e5                	mov    ebp,esp
 80482f7:	53                   	push   ebx
 80482f8:	83 ec 04             	sub    esp,0x4
 80482fb:	e8 00 00 00 00       	call   8048300 <_init+0xc>
 8048300:	5b                   	pop    ebx
 8048301:	81 c3 84 14 00 00    	add    ebx,0x1484
 8048307:	8b 93 fc ff ff ff    	mov    edx,DWORD PTR [ebx-0x4]
 804830d:	85 d2                	test   edx,edx
 804830f:	74 05                	je     8048316 <_init+0x22>
 8048311:	e8 1e 00 00 00       	call   8048334 <__gmon_start__@plt>
 8048316:	e8 15 01 00 00       	call   8048430 <frame_dummy>
 804831b:	e8 60 02 00 00       	call   8048580 <__do_global_ctors_aux>
 8048320:	58                   	pop    eax
 8048321:	5b                   	pop    ebx
 8048322:	c9                   	leave  
 8048323:	c3                   	ret    

Disassembly of section .plt:

08048324 <__gmon_start__@plt-0x10>:
 8048324:	ff 35 88 97 04 08    	push   DWORD PTR ds:0x8049788
 804832a:	ff 25 8c 97 04 08    	jmp    DWORD PTR ds:0x804978c
 8048330:	00 00                	add    BYTE PTR [eax],al
	...

08048334 <__gmon_start__@plt>:
 8048334:	ff 25 90 97 04 08    	jmp    DWORD PTR ds:0x8049790
 804833a:	68 00 00 00 00       	push   0x0
 804833f:	e9 e0 ff ff ff       	jmp    8048324 <_init+0x30>

08048344 <__libc_start_main@plt>:
 8048344:	ff 25 94 97 04 08    	jmp    DWORD PTR ds:0x8049794
 804834a:	68 08 00 00 00       	push   0x8
 804834f:	e9 d0 ff ff ff       	jmp    8048324 <_init+0x30>

08048354 <strlen@plt>:
 8048354:	ff 25 98 97 04 08    	jmp    DWORD PTR ds:0x8049798
 804835a:	68 10 00 00 00       	push   0x10
 804835f:	e9 c0 ff ff ff       	jmp    8048324 <_init+0x30>

08048364 <strcpy@plt>:
 8048364:	ff 25 9c 97 04 08    	jmp    DWORD PTR ds:0x804979c
 804836a:	68 18 00 00 00       	push   0x18
 804836f:	e9 b0 ff ff ff       	jmp    8048324 <_init+0x30>

08048374 <puts@plt>:
 8048374:	ff 25 a0 97 04 08    	jmp    DWORD PTR ds:0x80497a0
 804837a:	68 20 00 00 00       	push   0x20
 804837f:	e9 a0 ff ff ff       	jmp    8048324 <_init+0x30>

08048384 <exit@plt>:
 8048384:	ff 25 a4 97 04 08    	jmp    DWORD PTR ds:0x80497a4
 804838a:	68 28 00 00 00       	push   0x28
 804838f:	e9 90 ff ff ff       	jmp    8048324 <_init+0x30>

Disassembly of section .text:

080483a0 <_start>:
 80483a0:	31 ed                	xor    ebp,ebp
 80483a2:	5e                   	pop    esi
 80483a3:	89 e1                	mov    ecx,esp
 80483a5:	83 e4 f0             	and    esp,0xfffffff0
 80483a8:	50                   	push   eax
 80483a9:	54                   	push   esp
 80483aa:	52                   	push   edx
 80483ab:	68 10 85 04 08       	push   0x8048510
 80483b0:	68 20 85 04 08       	push   0x8048520
 80483b5:	51                   	push   ecx
 80483b6:	56                   	push   esi
 80483b7:	68 b7 84 04 08       	push   0x80484b7
 80483bc:	e8 83 ff ff ff       	call   8048344 <__libc_start_main@plt>
 80483c1:	f4                   	hlt    
 80483c2:	90                   	nop
 80483c3:	90                   	nop
 80483c4:	90                   	nop
 80483c5:	90                   	nop
 80483c6:	90                   	nop
 80483c7:	90                   	nop
 80483c8:	90                   	nop
 80483c9:	90                   	nop
 80483ca:	90                   	nop
 80483cb:	90                   	nop
 80483cc:	90                   	nop
 80483cd:	90                   	nop
 80483ce:	90                   	nop
 80483cf:	90                   	nop

080483d0 <__do_global_dtors_aux>:
 80483d0:	55                   	push   ebp
 80483d1:	89 e5                	mov    ebp,esp
 80483d3:	53                   	push   ebx
 80483d4:	8d 64 24 fc          	lea    esp,[esp-0x4]
 80483d8:	80 3d ac 97 04 08 00 	cmp    BYTE PTR ds:0x80497ac,0x0
 80483df:	75 3e                	jne    804841f <__do_global_dtors_aux+0x4f>
 80483e1:	bb b0 96 04 08       	mov    ebx,0x80496b0
 80483e6:	a1 b0 97 04 08       	mov    eax,ds:0x80497b0
 80483eb:	81 eb ac 96 04 08    	sub    ebx,0x80496ac
 80483f1:	c1 fb 02             	sar    ebx,0x2
 80483f4:	83 eb 01             	sub    ebx,0x1
 80483f7:	39 d8                	cmp    eax,ebx
 80483f9:	73 1d                	jae    8048418 <__do_global_dtors_aux+0x48>
 80483fb:	90                   	nop
 80483fc:	8d 74 26 00          	lea    esi,[esi+eiz*1+0x0]
 8048400:	83 c0 01             	add    eax,0x1
 8048403:	a3 b0 97 04 08       	mov    ds:0x80497b0,eax
 8048408:	ff 14 85 ac 96 04 08 	call   DWORD PTR [eax*4+0x80496ac]
 804840f:	a1 b0 97 04 08       	mov    eax,ds:0x80497b0
 8048414:	39 d8                	cmp    eax,ebx
 8048416:	72 e8                	jb     8048400 <__do_global_dtors_aux+0x30>
 8048418:	c6 05 ac 97 04 08 01 	mov    BYTE PTR ds:0x80497ac,0x1
 804841f:	8d 64 24 04          	lea    esp,[esp+0x4]
 8048423:	5b                   	pop    ebx
 8048424:	5d                   	pop    ebp
 8048425:	c3                   	ret    
 8048426:	8d 76 00             	lea    esi,[esi+0x0]
 8048429:	8d bc 27 00 00 00 00 	lea    edi,[edi+eiz*1+0x0]

08048430 <frame_dummy>:
 8048430:	55                   	push   ebp
 8048431:	89 e5                	mov    ebp,esp
 8048433:	8d 64 24 e8          	lea    esp,[esp-0x18]
 8048437:	a1 b4 96 04 08       	mov    eax,ds:0x80496b4
 804843c:	85 c0                	test   eax,eax
 804843e:	74 12                	je     8048452 <frame_dummy+0x22>
 8048440:	b8 00 00 00 00       	mov    eax,0x0
 8048445:	85 c0                	test   eax,eax
 8048447:	74 09                	je     8048452 <frame_dummy+0x22>
 8048449:	c7 04 24 b4 96 04 08 	mov    DWORD PTR [esp],0x80496b4
 8048450:	ff d0                	call   eax
 8048452:	c9                   	leave  
 8048453:	c3                   	ret    

08048454 <store_passwd_indb>:
 8048454:	55                   	push   ebp
 8048455:	89 e5                	mov    ebp,esp
 8048457:	5d                   	pop    ebp
 8048458:	c3                   	ret    

08048459 <validate_uname>:
 8048459:	55                   	push   ebp
 804845a:	89 e5                	mov    ebp,esp
 804845c:	5d                   	pop    ebp
 804845d:	c3                   	ret    

0804845e <validate_passwd>:
 804845e:	55                   	push   ebp
 804845f:	89 e5                	mov    ebp,esp
 8048461:	83 ec 28             	sub    esp,0x28
 8048464:	8b 45 08             	mov    eax,DWORD PTR [ebp+0x8]
 8048467:	89 04 24             	mov    DWORD PTR [esp],eax
 804846a:	e8 e5 fe ff ff       	call   8048354 <strlen@plt>
 804846f:	88 45 f7             	mov    BYTE PTR [ebp-0x9],al
 8048472:	80 7d f7 03          	cmp    BYTE PTR [ebp-0x9],0x3
 8048476:	76 26                	jbe    804849e <validate_passwd+0x40>
 8048478:	80 7d f7 08          	cmp    BYTE PTR [ebp-0x9],0x8
 804847c:	77 20                	ja     804849e <validate_passwd+0x40>
 804847e:	c7 04 24 d4 85 04 08 	mov    DWORD PTR [esp],0x80485d4
 8048485:	e8 ea fe ff ff       	call   8048374 <puts@plt>
 804848a:	8b 45 08             	mov    eax,DWORD PTR [ebp+0x8]
 804848d:	89 44 24 04          	mov    DWORD PTR [esp+0x4],eax
 8048491:	8d 45 ec             	lea    eax,[ebp-0x14]
 8048494:	89 04 24             	mov    DWORD PTR [esp],eax
 8048497:	e8 c8 fe ff ff       	call   8048364 <strcpy@plt>
 804849c:	eb 0c                	jmp    80484aa <validate_passwd+0x4c>
 804849e:	c7 04 24 e3 85 04 08 	mov    DWORD PTR [esp],0x80485e3
 80484a5:	e8 ca fe ff ff       	call   8048374 <puts@plt>
 80484aa:	8d 45 ec             	lea    eax,[ebp-0x14]
 80484ad:	89 04 24             	mov    DWORD PTR [esp],eax
 80484b0:	e8 9f ff ff ff       	call   8048454 <store_passwd_indb>
 80484b5:	c9                   	leave  
 80484b6:	c3                   	ret    

080484b7 <main>:
 80484b7:	55                   	push   ebp
 80484b8:	89 e5                	mov    ebp,esp
 80484ba:	83 e4 f0             	and    esp,0xfffffff0
 80484bd:	83 ec 10             	sub    esp,0x10
 80484c0:	83 7d 08 03          	cmp    DWORD PTR [ebp+0x8],0x3
 80484c4:	74 18                	je     80484de <main+0x27>
 80484c6:	c7 04 24 f4 85 04 08 	mov    DWORD PTR [esp],0x80485f4
 80484cd:	e8 a2 fe ff ff       	call   8048374 <puts@plt>
 80484d2:	c7 04 24 ff ff ff ff 	mov    DWORD PTR [esp],0xffffffff
 80484d9:	e8 a6 fe ff ff       	call   8048384 <exit@plt>
 80484de:	8b 45 0c             	mov    eax,DWORD PTR [ebp+0xc]
 80484e1:	83 c0 04             	add    eax,0x4
 80484e4:	8b 00                	mov    eax,DWORD PTR [eax]
 80484e6:	89 04 24             	mov    DWORD PTR [esp],eax
 80484e9:	e8 6b ff ff ff       	call   8048459 <validate_uname>
 80484ee:	8b 45 0c             	mov    eax,DWORD PTR [ebp+0xc]
 80484f1:	83 c0 08             	add    eax,0x8
 80484f4:	8b 00                	mov    eax,DWORD PTR [eax]
 80484f6:	89 04 24             	mov    DWORD PTR [esp],eax
 80484f9:	e8 60 ff ff ff       	call   804845e <validate_passwd>
 80484fe:	b8 00 00 00 00       	mov    eax,0x0
 8048503:	c9                   	leave  
 8048504:	c3                   	ret    
 8048505:	90                   	nop
 8048506:	90                   	nop
 8048507:	90                   	nop
 8048508:	90                   	nop
 8048509:	90                   	nop
 804850a:	90                   	nop
 804850b:	90                   	nop
 804850c:	90                   	nop
 804850d:	90                   	nop
 804850e:	90                   	nop
 804850f:	90                   	nop

08048510 <__libc_csu_fini>:
 8048510:	55                   	push   ebp
 8048511:	89 e5                	mov    ebp,esp
 8048513:	5d                   	pop    ebp
 8048514:	c3                   	ret    
 8048515:	66 66 2e 0f 1f 84 00 	data32 nop WORD PTR cs:[eax+eax*1+0x0]
 804851c:	00 00 00 00 

08048520 <__libc_csu_init>:
 8048520:	55                   	push   ebp
 8048521:	89 e5                	mov    ebp,esp
 8048523:	57                   	push   edi
 8048524:	56                   	push   esi
 8048525:	53                   	push   ebx
 8048526:	e8 4f 00 00 00       	call   804857a <__i686.get_pc_thunk.bx>
 804852b:	81 c3 59 12 00 00    	add    ebx,0x1259
 8048531:	83 ec 1c             	sub    esp,0x1c
 8048534:	e8 bb fd ff ff       	call   80482f4 <_init>
 8048539:	8d bb 20 ff ff ff    	lea    edi,[ebx-0xe0]
 804853f:	8d 83 20 ff ff ff    	lea    eax,[ebx-0xe0]
 8048545:	29 c7                	sub    edi,eax
 8048547:	c1 ff 02             	sar    edi,0x2
 804854a:	85 ff                	test   edi,edi
 804854c:	74 24                	je     8048572 <__libc_csu_init+0x52>
 804854e:	31 f6                	xor    esi,esi
 8048550:	8b 45 10             	mov    eax,DWORD PTR [ebp+0x10]
 8048553:	89 44 24 08          	mov    DWORD PTR [esp+0x8],eax
 8048557:	8b 45 0c             	mov    eax,DWORD PTR [ebp+0xc]
 804855a:	89 44 24 04          	mov    DWORD PTR [esp+0x4],eax
 804855e:	8b 45 08             	mov    eax,DWORD PTR [ebp+0x8]
 8048561:	89 04 24             	mov    DWORD PTR [esp],eax
 8048564:	ff 94 b3 20 ff ff ff 	call   DWORD PTR [ebx+esi*4-0xe0]
 804856b:	83 c6 01             	add    esi,0x1
 804856e:	39 fe                	cmp    esi,edi
 8048570:	72 de                	jb     8048550 <__libc_csu_init+0x30>
 8048572:	83 c4 1c             	add    esp,0x1c
 8048575:	5b                   	pop    ebx
 8048576:	5e                   	pop    esi
 8048577:	5f                   	pop    edi
 8048578:	5d                   	pop    ebp
 8048579:	c3                   	ret    

0804857a <__i686.get_pc_thunk.bx>:
 804857a:	8b 1c 24             	mov    ebx,DWORD PTR [esp]
 804857d:	c3                   	ret    
 804857e:	90                   	nop
 804857f:	90                   	nop

08048580 <__do_global_ctors_aux>:
 8048580:	55                   	push   ebp
 8048581:	89 e5                	mov    ebp,esp
 8048583:	53                   	push   ebx
 8048584:	8d 64 24 fc          	lea    esp,[esp-0x4]
 8048588:	a1 a4 96 04 08       	mov    eax,ds:0x80496a4
 804858d:	83 f8 ff             	cmp    eax,0xffffffff
 8048590:	74 12                	je     80485a4 <__do_global_ctors_aux+0x24>
 8048592:	bb a4 96 04 08       	mov    ebx,0x80496a4
 8048597:	90                   	nop
 8048598:	8d 5b fc             	lea    ebx,[ebx-0x4]
 804859b:	ff d0                	call   eax
 804859d:	8b 03                	mov    eax,DWORD PTR [ebx]
 804859f:	83 f8 ff             	cmp    eax,0xffffffff
 80485a2:	75 f4                	jne    8048598 <__do_global_ctors_aux+0x18>
 80485a4:	8d 64 24 04          	lea    esp,[esp+0x4]
 80485a8:	5b                   	pop    ebx
 80485a9:	5d                   	pop    ebp
 80485aa:	c3                   	ret    
 80485ab:	90                   	nop

Disassembly of section .fini:

080485ac <_fini>:
 80485ac:	55                   	push   ebp
 80485ad:	89 e5                	mov    ebp,esp
 80485af:	53                   	push   ebx
 80485b0:	83 ec 04             	sub    esp,0x4
 80485b3:	e8 00 00 00 00       	call   80485b8 <_fini+0xc>
 80485b8:	5b                   	pop    ebx
 80485b9:	81 c3 cc 11 00 00    	add    ebx,0x11cc
 80485bf:	e8 0c fe ff ff       	call   80483d0 <__do_global_dtors_aux>
 80485c4:	59                   	pop    ecx
 80485c5:	5b                   	pop    ebx
 80485c6:	c9                   	leave  
 80485c7:	c3                   	ret    


[consen@centos x86]$ ./vuln user 1234
0xbffff604
Valid Password
[consen@centos x86]$ vim exp.py
[consen@centos x86]$ python exp.py
Calling vulnerable program
0xbffff504
Valid Password
[consen@centos x86]$ vim exp.py
[consen@centos x86]$ python exp.py
Calling vulnerable program
0xbffff504
Valid Password
sh-4.1# whoami
root
sh-4.1# id
uid=0(root) gid=500(consen) groups=500(consen) context=unconfined_u:unconfined_r:unconfined_t:s0-s0:c0.c1023
sh-4.1# exit
exit
